target datalayout = "e-m:e-p270:32:32-p271:32:32-p272:64:64-i64:64-i128:128-f80:128-n8:16:32:64-S128"
target triple = "x86_64-pc-linux-gnu"

%struct.ossl_cc_method_st = type { ptr, ptr, ptr, ptr, ptr, ptr, ptr, ptr, ptr, ptr, ptr, ptr, ptr, ptr }
%struct.helper = type { ptr, %struct.ossl_quic_tx_packetiser_args_st, %struct.ossl_qtx_args_st, ptr, ptr, %struct.quic_txfc_st, %struct.quic_rxfc_st, %struct.quic_rxfc_st, %struct.quic_rxfc_st, %struct.quic_rxfc_st, %struct.ossl_statm_st, ptr, ptr, %struct.quic_stream_map_st, i8, i8, ptr, ptr, %struct.ossl_qrx_args_st, ptr, %struct.PACKET, i64, %union.anon.0, [16 x %struct.ossl_quic_ack_range_st] }
%struct.ossl_quic_tx_packetiser_args_st = type { %struct.quic_conn_id_st, %struct.quic_conn_id_st, %union.bio_addr_st, i32, ptr, ptr, ptr, ptr, ptr, ptr, ptr, ptr, ptr, ptr, ptr, ptr, ptr, ptr, ptr, i32, [3 x ptr] }
%struct.quic_conn_id_st = type { i8, [20 x i8] }
%union.bio_addr_st = type { %struct.sockaddr_in6, [84 x i8] }
%struct.sockaddr_in6 = type { i16, i16, i32, %struct.in6_addr, i32 }
%struct.in6_addr = type { %union.anon }
%union.anon = type { [4 x i32] }
%struct.ossl_qtx_args_st = type { ptr, ptr, ptr, i64, ptr, ptr }
%struct.quic_txfc_st = type { ptr, i64, i64, i8 }
%struct.quic_rxfc_st = type { i64, i64, i64, i64, i64, i64, i64, %struct.OSSL_TIME, ptr, ptr, ptr, i8, i8, i8, i8 }
%struct.OSSL_TIME = type { i64 }
%struct.ossl_statm_st = type { %struct.OSSL_TIME, %struct.OSSL_TIME, %struct.OSSL_TIME, %struct.OSSL_TIME, i8 }
%struct.quic_stream_map_st = type { ptr, %struct.quic_stream_list_node_st, %struct.quic_stream_list_node_st, %struct.quic_stream_list_node_st, i64, i64, i64, i64, i64, ptr, ptr, ptr, ptr, ptr, i32 }
%struct.quic_stream_list_node_st = type { ptr, ptr }
%struct.ossl_qrx_args_st = type { ptr, ptr, ptr, i64, i64, [3 x i64], i8 }
%struct.PACKET = type { ptr, i64 }
%union.anon.0 = type { %struct.ossl_quic_frame_new_conn_id_st }
%struct.ossl_quic_frame_new_conn_id_st = type { i64, i64, %struct.quic_conn_id_st, %struct.QUIC_STATELESS_RESET_TOKEN }
%struct.QUIC_STATELESS_RESET_TOKEN = type { [16 x i8] }
%struct.ossl_quic_ack_range_st = type { i64, i64 }

; Function Attrs: nounwind uwtable
define internal void @helper_cleanup(ptr noundef %0) #0 {
  %2 = alloca ptr, align 8
  %3 = alloca i64, align 8
  %4 = alloca i32, align 4
  store ptr %0, ptr %2, align 8, !tbaa !82
  call void @llvm.lifetime.start.p0(i64 8, ptr %3) #7
  call void @llvm.lifetime.start.p0(i64 4, ptr %4) #7
  %5 = load ptr, ptr %2, align 8, !tbaa !82
  %6 = getelementptr inbounds nuw %struct.helper, ptr %5, i32 0, i32 19
  %7 = load ptr, ptr %6, align 8, !tbaa !53
  call void @ossl_qrx_pkt_release(ptr noundef %7)
  %8 = load ptr, ptr %2, align 8, !tbaa !82
  %9 = getelementptr inbounds nuw %struct.helper, ptr %8, i32 0, i32 19
  store ptr null, ptr %9, align 8, !tbaa !53
  store i32 0, ptr %4, align 4, !tbaa !4
  br label %10

10:                                               ; preds = %20, %1
  %11 = load i32, ptr %4, align 4, !tbaa !4
  %12 = icmp ult i32 %11, 3
  br i1 %12, label %13, label %23

13:                                               ; preds = %10
  %14 = load ptr, ptr %2, align 8, !tbaa !82
  %15 = getelementptr inbounds nuw %struct.helper, ptr %14, i32 0, i32 1
  %16 = getelementptr inbounds nuw %struct.ossl_quic_tx_packetiser_args_st, ptr %15, i32 0, i32 7
  %17 = load ptr, ptr %16, align 8, !tbaa !94
  %18 = load i32, ptr %4, align 4, !tbaa !4
  %19 = call i32 @ossl_ackm_on_pkt_space_discarded(ptr noundef %17, i32 noundef %18)
  br label %20

20:                                               ; preds = %13
  %21 = load i32, ptr %4, align 4, !tbaa !4
  %22 = add i32 %21, 1
  store i32 %22, ptr %4, align 4, !tbaa !4
  br label %10, !llvm.loop !115

23:                                               ; preds = %10
  %24 = load ptr, ptr %2, align 8, !tbaa !82
  %25 = getelementptr inbounds nuw %struct.helper, ptr %24, i32 0, i32 0
  %26 = load ptr, ptr %25, align 8, !tbaa !17
  call void @ossl_quic_tx_packetiser_free(ptr noundef %26)
  %27 = load ptr, ptr %2, align 8, !tbaa !82
  %28 = getelementptr inbounds nuw %struct.helper, ptr %27, i32 0, i32 1
  %29 = getelementptr inbounds nuw %struct.ossl_quic_tx_packetiser_args_st, ptr %28, i32 0, i32 4
  %30 = load ptr, ptr %29, align 8, !tbaa !51
  call void @ossl_qtx_free(ptr noundef %30)
  %31 = load ptr, ptr %2, align 8, !tbaa !82
  %32 = getelementptr inbounds nuw %struct.helper, ptr %31, i32 0, i32 1
  %33 = getelementptr inbounds nuw %struct.ossl_quic_tx_packetiser_args_st, ptr %32, i32 0, i32 5
  %34 = load ptr, ptr %33, align 8, !tbaa !87
  call void @ossl_quic_txpim_free(ptr noundef %34)
  %35 = load ptr, ptr %2, align 8, !tbaa !82
  %36 = getelementptr inbounds nuw %struct.helper, ptr %35, i32 0, i32 1
  %37 = getelementptr inbounds nuw %struct.ossl_quic_tx_packetiser_args_st, ptr %36, i32 0, i32 6
  %38 = load ptr, ptr %37, align 8, !tbaa !88
  call void @ossl_quic_cfq_free(ptr noundef %38)
  %39 = load ptr, ptr %2, align 8, !tbaa !82
  %40 = getelementptr inbounds nuw %struct.helper, ptr %39, i32 0, i32 11
  %41 = load ptr, ptr %40, align 8, !tbaa !93
  %42 = icmp ne ptr %41, null
  br i1 %42, label %43, label %52

43:                                               ; preds = %23
  %44 = load ptr, ptr %2, align 8, !tbaa !82
  %45 = getelementptr inbounds nuw %struct.helper, ptr %44, i32 0, i32 12
  %46 = load ptr, ptr %45, align 8, !tbaa !90
  %47 = getelementptr inbounds nuw %struct.ossl_cc_method_st, ptr %46, i32 0, i32 1
  %48 = load ptr, ptr %47, align 8, !tbaa !116
  %49 = load ptr, ptr %2, align 8, !tbaa !82
  %50 = getelementptr inbounds nuw %struct.helper, ptr %49, i32 0, i32 11
  %51 = load ptr, ptr %50, align 8, !tbaa !93
  call void %48(ptr noundef %51)
  br label %52

52:                                               ; preds = %43, %23
  %53 = load ptr, ptr %2, align 8, !tbaa !82
  %54 = getelementptr inbounds nuw %struct.helper, ptr %53, i32 0, i32 14
  %55 = load i8, ptr %54, align 8, !tbaa !89
  %56 = icmp ne i8 %55, 0
  br i1 %56, label %57, label %60

57:                                               ; preds = %52
  %58 = load ptr, ptr %2, align 8, !tbaa !82
  %59 = getelementptr inbounds nuw %struct.helper, ptr %58, i32 0, i32 10
  call void @ossl_statm_destroy(ptr noundef %59)
  br label %60

60:                                               ; preds = %57, %52
  %61 = load ptr, ptr %2, align 8, !tbaa !82
  %62 = getelementptr inbounds nuw %struct.helper, ptr %61, i32 0, i32 15
  %63 = load i8, ptr %62, align 1, !tbaa !95
  %64 = icmp ne i8 %63, 0
  br i1 %64, label %65, label %68

65:                                               ; preds = %60
  %66 = load ptr, ptr %2, align 8, !tbaa !82
  %67 = getelementptr inbounds nuw %struct.helper, ptr %66, i32 0, i32 13
  call void @ossl_quic_stream_map_cleanup(ptr noundef %67)
  br label %68

68:                                               ; preds = %65, %60
  store i64 0, ptr %3, align 8, !tbaa !11
  br label %69

69:                                               ; preds = %79, %68
  %70 = load i64, ptr %3, align 8, !tbaa !11
  %71 = icmp ult i64 %70, 3
  br i1 %71, label %72, label %82

72:                                               ; preds = %69
  %73 = load ptr, ptr %2, align 8, !tbaa !82
  %74 = getelementptr inbounds nuw %struct.helper, ptr %73, i32 0, i32 1
  %75 = getelementptr inbounds nuw %struct.ossl_quic_tx_packetiser_args_st, ptr %74, i32 0, i32 20
  %76 = load i64, ptr %3, align 8, !tbaa !11
  %77 = getelementptr inbounds nuw [3 x ptr], ptr %75, i64 0, i64 %76
  %78 = load ptr, ptr %77, align 8, !tbaa !71
  call void @ossl_quic_sstream_free(ptr noundef %78)
  br label %79

79:                                               ; preds = %72
  %80 = load i64, ptr %3, align 8, !tbaa !11
  %81 = add i64 %80, 1
  store i64 %81, ptr %3, align 8, !tbaa !11
  br label %69, !llvm.loop !117

82:                                               ; preds = %69
  %83 = load ptr, ptr %2, align 8, !tbaa !82
  %84 = getelementptr inbounds nuw %struct.helper, ptr %83, i32 0, i32 1
  %85 = getelementptr inbounds nuw %struct.ossl_quic_tx_packetiser_args_st, ptr %84, i32 0, i32 7
  %86 = load ptr, ptr %85, align 8, !tbaa !94
  call void @ossl_ackm_free(ptr noundef %86)
  %87 = load ptr, ptr %2, align 8, !tbaa !82
  %88 = getelementptr inbounds nuw %struct.helper, ptr %87, i32 0, i32 17
  %89 = load ptr, ptr %88, align 8, !tbaa !54
  call void @ossl_qrx_free(ptr noundef %89)
  %90 = load ptr, ptr %2, align 8, !tbaa !82
  %91 = getelementptr inbounds nuw %struct.helper, ptr %90, i32 0, i32 16
  %92 = load ptr, ptr %91, align 8, !tbaa !52
  call void @ossl_quic_demux_free(ptr noundef %92)
  %93 = load ptr, ptr %2, align 8, !tbaa !82
  %94 = getelementptr inbounds nuw %struct.helper, ptr %93, i32 0, i32 3
  %95 = load ptr, ptr %94, align 8, !tbaa !84
  %96 = call i32 @BIO_free(ptr noundef %95)
  %97 = load ptr, ptr %2, align 8, !tbaa !82
  %98 = getelementptr inbounds nuw %struct.helper, ptr %97, i32 0, i32 4
  %99 = load ptr, ptr %98, align 8, !tbaa !105
  %100 = call i32 @BIO_free(ptr noundef %99)
  call void @llvm.lifetime.end.p0(i64 4, ptr %4) #7
  call void @llvm.lifetime.end.p0(i64 8, ptr %3) #7
  ret void
}