; Function Attrs: nounwind uwtable
define internal fastcc void @helper_cleanup(ptr noundef nonnull %0) unnamed_addr #0 {
  %2 = getelementptr inbounds nuw i8, ptr %0, i64 1096
  %3 = load ptr, ptr %2, align 8, !tbaa !83
  tail call void @ossl_qrx_pkt_release(ptr noundef %3) #8
  store ptr null, ptr %2, align 8, !tbaa !83
  %4 = getelementptr inbounds nuw i8, ptr %0, i64 192
  br label %5

5:                                                ; preds = %1, %5
  %.029 = phi i32 [ 0, %1 ], [ %8, %5 ]
  %6 = load ptr, ptr %4, align 8, !tbaa !57
  %7 = tail call i32 @ossl_ackm_on_pkt_space_discarded(ptr noundef %6, i32 noundef %.029) #8
  %8 = add nuw nsw i32 %.029, 1
  %exitcond.not = icmp eq i32 %8, 3
  br i1 %exitcond.not, label %9, label %5, !llvm.loop !108

9:                                                ; preds = %5
  %10 = load ptr, ptr %0, align 8, !tbaa !74
  tail call void @ossl_quic_tx_packetiser_free(ptr noundef %10) #8
  %11 = getelementptr inbounds nuw i8, ptr %0, i64 168
  %12 = load ptr, ptr %11, align 8, !tbaa !49
  tail call void @ossl_qtx_free(ptr noundef %12) #8
  %13 = getelementptr inbounds nuw i8, ptr %0, i64 176
  %14 = load ptr, ptr %13, align 8, !tbaa !50
  tail call void @ossl_quic_txpim_free(ptr noundef %14) #8
  %15 = getelementptr inbounds nuw i8, ptr %0, i64 184
  %16 = load ptr, ptr %15, align 8, !tbaa !51
  tail call void @ossl_quic_cfq_free(ptr noundef %16) #8
  %17 = getelementptr inbounds nuw i8, ptr %0, i64 840
  %18 = load ptr, ptr %17, align 8, !tbaa !56
  %.not = icmp eq ptr %18, null
  br i1 %.not, label %24, label %19

19:                                               ; preds = %9
  %20 = getelementptr inbounds nuw i8, ptr %0, i64 848
  %21 = load ptr, ptr %20, align 8, !tbaa !53
  %22 = getelementptr inbounds nuw i8, ptr %21, i64 8
  %23 = load ptr, ptr %22, align 8, !tbaa !109
  tail call void %23(ptr noundef nonnull %18) #8
  br label %24

24:                                               ; preds = %19, %9
  %25 = getelementptr inbounds nuw i8, ptr %0, i64 1000
  %26 = load i8, ptr %25, align 8, !tbaa !52
  %.not27 = icmp eq i8 %26, 0
  br i1 %.not27, label %29, label %27

27:                                               ; preds = %24
  %28 = getelementptr inbounds nuw i8, ptr %0, i64 800
  tail call void @ossl_statm_destroy(ptr noundef nonnull %28) #8
  br label %29

29:                                               ; preds = %27, %24
  %30 = getelementptr inbounds nuw i8, ptr %0, i64 1001
  %31 = load i8, ptr %30, align 1, !tbaa !58
  %.not28 = icmp eq i8 %31, 0
  br i1 %.not28, label %34, label %32

32:                                               ; preds = %29
  %33 = getelementptr inbounds nuw i8, ptr %0, i64 856
  tail call void @ossl_quic_stream_map_cleanup(ptr noundef nonnull %33) #8
  br label %34

34:                                               ; preds = %32, %29
  %35 = getelementptr inbounds nuw i8, ptr %0, i64 296
  br label %36

36:                                               ; preds = %34, %36
  %.02530 = phi i64 [ 0, %34 ], [ %39, %36 ]
  %37 = getelementptr inbounds nuw [3 x ptr], ptr %35, i64 0, i64 %.02530
  %38 = load ptr, ptr %37, align 8, !tbaa !61
  tail call void @ossl_quic_sstream_free(ptr noundef %38) #8
  %39 = add nuw nsw i64 %.02530, 1
  %exitcond31.not = icmp eq i64 %39, 3
  br i1 %exitcond31.not, label %40, label %36, !llvm.loop !110

40:                                               ; preds = %36
  %41 = load ptr, ptr %4, align 8, !tbaa !57
  tail call void @ossl_ackm_free(ptr noundef %41) #8
  %42 = getelementptr inbounds nuw i8, ptr %0, i64 1016
  %43 = load ptr, ptr %42, align 8, !tbaa !80
  tail call void @ossl_qrx_free(ptr noundef %43) #8
  %44 = getelementptr inbounds nuw i8, ptr %0, i64 1008
  %45 = load ptr, ptr %44, align 8, !tbaa !76
  tail call void @ossl_quic_demux_free(ptr noundef %45) #8
  %46 = getelementptr inbounds nuw i8, ptr %0, i64 368
  %47 = load ptr, ptr %46, align 8, !tbaa !15
  %48 = tail call i32 @BIO_free(ptr noundef %47) #8
  %49 = getelementptr inbounds nuw i8, ptr %0, i64 376
  %50 = load ptr, ptr %49, align 8, !tbaa !75
  %51 = tail call i32 @BIO_free(ptr noundef %50) #8
  ret void
}